target datalayout = "e-m:e-p270:32:32-p271:32:32-p272:64:64-i64:64-i128:128-f80:128-n8:16:32:64-S128"
target triple = "x86_64-unknown-linux-gnu"

%"class.google::protobuf::DynamicMessage" = type <{ %"class.google::protobuf::Message", ptr, %"class.google::protobuf::internal::CachedSize", [4 x i8] }>
%"class.google::protobuf::Message" = type { %"class.google::protobuf::MessageLite" }
%"class.google::protobuf::MessageLite" = type { ptr, %"class.google::protobuf::internal::InternalMetadata" }
%"class.google::protobuf::internal::InternalMetadata" = type { i64 }
%"class.google::protobuf::internal::CachedSize" = type { i32 }
%"struct.google::protobuf::DynamicMessageFactory::TypeInfo" = type <{ i32, i32, i32, i32, ptr, ptr, ptr, %"class.std::unique_ptr", %"class.std::unique_ptr", %"class.std::unique_ptr.2", ptr, i32, [4 x i8] }>
%"class.std::unique_ptr" = type { %"struct.std::__uniq_ptr_data" }
%"struct.std::__uniq_ptr_data" = type { %"class.std::__uniq_ptr_impl" }
%"class.std::__uniq_ptr_impl" = type { %"class.std::tuple" }
%"class.std::tuple" = type { %"struct.std::_Tuple_impl" }
%"struct.std::_Tuple_impl" = type { %"struct.std::_Head_base.1" }
%"struct.std::_Head_base.1" = type { ptr }
%"class.std::unique_ptr.2" = type { %"struct.std::__uniq_ptr_data.3" }
%"struct.std::__uniq_ptr_data.3" = type { %"class.std::__uniq_ptr_impl.4" }
%"class.std::__uniq_ptr_impl.4" = type { %"class.std::tuple.5" }
%"class.std::tuple.5" = type { %"struct.std::_Tuple_impl.6" }
%"struct.std::_Tuple_impl.6" = type { %"struct.std::_Head_base.9" }
%"struct.std::_Head_base.9" = type { ptr }

; Function Attrs: mustprogress nounwind uwtable
define hidden noundef zeroext i1 @_ZNK6google8protobuf14DynamicMessage12is_prototypeEv(ptr noundef nonnull align 8 dereferenceable(32) %this) #5 align 2 {
entry:
  %this.addr = alloca ptr, align 8
  store ptr %this, ptr %this.addr, align 8
  %this1 = load ptr, ptr %this.addr, align 8
  %type_info_ = getelementptr inbounds %"class.google::protobuf::DynamicMessage", ptr %this1, i32 0, i32 1
  %0 = load ptr, ptr %type_info_, align 8
  %prototype = getelementptr inbounds %"struct.google::protobuf::DynamicMessageFactory::TypeInfo", ptr %0, i32 0, i32 10
  %1 = load ptr, ptr %prototype, align 8
  %cmp = icmp eq ptr %1, %this1
  br i1 %cmp, label %lor.end, label %lor.rhs

lor.rhs:                                          ; preds = %entry
  %type_info_2 = getelementptr inbounds %"class.google::protobuf::DynamicMessage", ptr %this1, i32 0, i32 1
  %2 = load ptr, ptr %type_info_2, align 8
  %prototype3 = getelementptr inbounds %"struct.google::protobuf::DynamicMessageFactory::TypeInfo", ptr %2, i32 0, i32 10
  %3 = load ptr, ptr %prototype3, align 8
  %cmp4 = icmp eq ptr %3, null
  br label %lor.end

lor.end:                                          ; preds = %lor.rhs, %entry
  %4 = phi i1 [ true, %entry ], [ %cmp4, %lor.rhs ]
  ret i1 %4
}