; Function Attrs: mustprogress nofree norecurse nosync nounwind willreturn memory(read, inaccessiblemem: none) uwtable
define hidden noundef zeroext i1 @_ZNK6google8protobuf14DynamicMessage12is_prototypeEv(ptr noundef nonnull readonly align 8 dereferenceable(32) %this) local_unnamed_addr #6 align 2 {
entry:
  %type_info_ = getelementptr inbounds i8, ptr %this, i64 16
  %0 = load ptr, ptr %type_info_, align 8
  %prototype = getelementptr inbounds i8, ptr %0, i64 64
  %1 = load ptr, ptr %prototype, align 8
  %cmp = icmp eq ptr %1, %this
  %cmp4 = icmp eq ptr %1, null
  %spec.select = or i1 %cmp, %cmp4
  ret i1 %spec.select
}